; Function Attrs: mustprogress uwtable
define hidden void @_ZN2cv3hal12cpu_baseline15cvtGraytoBGR5x5EPKhmPhmiii(ptr noundef %0, i64 noundef %1, ptr noundef %2, i64 noundef %3, i32 noundef %4, i32 noundef %5, i32 noundef %6) local_unnamed_addr #0 personality ptr @__gxx_personality_v0 {
  %8 = alloca %"class.cv::Range", align 4
  %9 = alloca %"class.cv::impl::(anonymous namespace)::CvtColorLoop_Invoker.25", align 8
  %10 = alloca %"class.cv::utils::trace::details::Region", align 8
  %11 = alloca %"struct.cv::hal::cpu_baseline::(anonymous namespace)::Gray2RGB5x5", align 4
  call void @_ZN2cv5utils5trace7details6RegionC1ERKNS3_21LocationStaticStorageE(ptr noundef nonnull align 8 dereferenceable(12) %10, ptr noundef nonnull align 8 dereferenceable(32) @_ZZN2cv3hal12cpu_baseline15cvtGraytoBGR5x5EPKhmPhmiiiE26__cv_trace_location_fn1194)
  store i32 %6, ptr %11, align 4
  call void @llvm.lifetime.start.p0(i64 8, ptr nonnull %8)
  call void @llvm.lifetime.start.p0(i64 56, ptr nonnull %9)
  store i32 0, ptr %8, align 4
  %12 = getelementptr inbounds i8, ptr %8, i64 4
  store i32 %5, ptr %12, align 4
  store ptr getelementptr inbounds inrange(-16, 24) (i8, ptr @_ZTVN2cv4impl12_GLOBAL__N_120CvtColorLoop_InvokerINS_3hal12cpu_baseline12_GLOBAL__N_111Gray2RGB5x5EEE, i64 16), ptr %9, align 8
  %13 = getelementptr inbounds i8, ptr %9, i64 8
  store ptr %0, ptr %13, align 8
  %14 = getelementptr inbounds i8, ptr %9, i64 16
  store i64 %1, ptr %14, align 8
  %15 = getelementptr inbounds i8, ptr %9, i64 24
  store ptr %2, ptr %15, align 8
  %16 = getelementptr inbounds i8, ptr %9, i64 32
  store i64 %3, ptr %16, align 8
  %17 = getelementptr inbounds i8, ptr %9, i64 40
  store i32 %4, ptr %17, align 8
  %18 = getelementptr inbounds i8, ptr %9, i64 48
  store ptr %11, ptr %18, align 8
  %19 = mul nsw i32 %5, %4
  %20 = sitofp i32 %19 to double
  %21 = fmul double %20, 0x3EF0000000000000
  invoke void @_ZN2cv13parallel_for_ERKNS_5RangeERKNS_16ParallelLoopBodyEd(ptr noundef nonnull align 4 dereferenceable(8) %8, ptr noundef nonnull align 8 dereferenceable(8) %9, double noundef %21)
          to label %23 unwind label %.body

.body:                                            ; preds = %7
  %22 = landingpad { ptr, i32 }
          cleanup
  call void @_ZN2cv16ParallelLoopBodyD2Ev(ptr noundef nonnull align 8 dereferenceable(8) %9) #11
  call void @_ZN2cv5utils5trace7details6RegionD2Ev(ptr noundef nonnull align 8 dereferenceable(12) %10) #11
  resume { ptr, i32 } %22

23:                                               ; preds = %7
  call void @_ZN2cv16ParallelLoopBodyD2Ev(ptr noundef nonnull align 8 dereferenceable(8) %9) #11
  call void @llvm.lifetime.end.p0(i64 8, ptr nonnull %8)
  call void @llvm.lifetime.end.p0(i64 56, ptr nonnull %9)
  %24 = getelementptr inbounds i8, ptr %10, i64 8
  %25 = load i32, ptr %24, align 8
  %.not.i = icmp eq i32 %25, 0
  br i1 %.not.i, label %_ZN2cv5utils5trace7details6RegionD2Ev.exit, label %26

26:                                               ; preds = %23
  invoke void @_ZN2cv5utils5trace7details6Region7destroyEv(ptr noundef nonnull align 8 dereferenceable(12) %10)
          to label %_ZN2cv5utils5trace7details6RegionD2Ev.exit unwind label %27

27:                                               ; preds = %26
  %28 = landingpad { ptr, i32 }
          catch ptr null
  %29 = extractvalue { ptr, i32 } %28, 0
  call void @__clang_call_terminate(ptr %29) #13
  unreachable

_ZN2cv5utils5trace7details6RegionD2Ev.exit:       ; preds = %23, %26
  ret void
}